target datalayout = "e-m:e-p270:32:32-p271:32:32-p272:64:64-i64:64-i128:128-f80:128-n8:16:32:64-S128"
target triple = "x86_64-pc-linux-gnu"

%struct.PJconsts = type { ptr, ptr, ptr, ptr, ptr, ptr, ptr, ptr, ptr, ptr, ptr, ptr, i32, ptr, ptr, ptr, ptr, ptr, ptr, ptr, ptr, double, double, double, double, double, double, double, double, double, double, double, double, double, double, double, double, double, double, double, double, double, double, i32, i32, i32, i32, i32, i32, i32, i32, i32, i32, i32, ptr, ptr, ptr, ptr, ptr, ptr, double, double, double, double, double, double, double, double, double, double, double, i32, [7 x double], i32, ptr, ptr, double, double, i32, [4 x i8], %"class.std::shared_ptr", i8, double, i8, %"class.std::__cxx11::basic_string", %"class.std::__cxx11::basic_string", %"class.std::__cxx11::basic_string", i8, %"class.std::vector", i32, %"class.std::vector.3", i32, i8, i8, i8, ptr }
%"class.std::shared_ptr" = type { %"class.std::__shared_ptr" }
%"class.std::__shared_ptr" = type { ptr, %"class.std::__shared_count" }
%"class.std::__shared_count" = type { ptr }
%"class.std::__cxx11::basic_string" = type { %"struct.std::__cxx11::basic_string<char>::_Alloc_hider", i64, %union.anon }
%"struct.std::__cxx11::basic_string<char>::_Alloc_hider" = type { ptr }
%union.anon = type { i64, [8 x i8] }
%"class.std::vector" = type { %"struct.std::_Vector_base" }
%"struct.std::_Vector_base" = type { %"struct.std::_Vector_base<osgeo::proj::operation::GridDescription, std::allocator<osgeo::proj::operation::GridDescription>>::_Vector_impl" }
%"struct.std::_Vector_base<osgeo::proj::operation::GridDescription, std::allocator<osgeo::proj::operation::GridDescription>>::_Vector_impl" = type { %"struct.std::_Vector_base<osgeo::proj::operation::GridDescription, std::allocator<osgeo::proj::operation::GridDescription>>::_Vector_impl_data" }
%"struct.std::_Vector_base<osgeo::proj::operation::GridDescription, std::allocator<osgeo::proj::operation::GridDescription>>::_Vector_impl_data" = type { ptr, ptr, ptr }
%"class.std::vector.3" = type { %"struct.std::_Vector_base.4" }
%"struct.std::_Vector_base.4" = type { %"struct.std::_Vector_base<PJCoordOperation, std::allocator<PJCoordOperation>>::_Vector_impl" }
%"struct.std::_Vector_base<PJCoordOperation, std::allocator<PJCoordOperation>>::_Vector_impl" = type { %"struct.std::_Vector_base<PJCoordOperation, std::allocator<PJCoordOperation>>::_Vector_impl_data" }
%"struct.std::_Vector_base<PJCoordOperation, std::allocator<PJCoordOperation>>::_Vector_impl_data" = type { ptr, ptr, ptr }
%"struct.(anonymous namespace)::pj_opaque" = type { double, double, double, double, double, double, double, double }
%struct.PJ_LP = type { double, double }
%struct.PJ_XY = type { double, double }

; Function Attrs: mustprogress nounwind uwtable
define internal { double, double } @_ZL15labrd_e_forward5PJ_LPP8PJconsts(double %0, double %1, ptr noundef %2) #6 {
  %4 = alloca %struct.PJ_XY, align 8
  %5 = alloca %struct.PJ_LP, align 8
  %6 = alloca ptr, align 8
  %7 = alloca ptr, align 8
  %8 = alloca double, align 8
  %9 = alloca double, align 8
  %10 = alloca double, align 8
  %11 = alloca double, align 8
  %12 = alloca double, align 8
  %13 = alloca double, align 8
  %14 = alloca double, align 8
  %15 = alloca double, align 8
  %16 = alloca double, align 8
  %17 = alloca double, align 8
  %18 = alloca double, align 8
  %19 = alloca double, align 8
  %20 = alloca double, align 8
  %21 = alloca double, align 8
  %22 = alloca double, align 8
  %23 = alloca double, align 8
  %24 = getelementptr inbounds nuw { double, double }, ptr %5, i32 0, i32 0
  store double %0, ptr %24, align 8
  %25 = getelementptr inbounds nuw { double, double }, ptr %5, i32 0, i32 1
  store double %1, ptr %25, align 8
  store ptr %2, ptr %6, align 8, !tbaa !3
  call void @llvm.memset.p0.i64(ptr align 8 %4, i8 0, i64 16, i1 false)
  call void @llvm.lifetime.start.p0(i64 8, ptr %7) #8
  %26 = load ptr, ptr %6, align 8, !tbaa !3
  %27 = getelementptr inbounds nuw %struct.PJconsts, ptr %26, i32 0, i32 11
  %28 = load ptr, ptr %27, align 8, !tbaa !43
  store ptr %28, ptr %7, align 8, !tbaa !41
  call void @llvm.lifetime.start.p0(i64 8, ptr %8) #8
  call void @llvm.lifetime.start.p0(i64 8, ptr %9) #8
  call void @llvm.lifetime.start.p0(i64 8, ptr %10) #8
  call void @llvm.lifetime.start.p0(i64 8, ptr %11) #8
  call void @llvm.lifetime.start.p0(i64 8, ptr %12) #8
  call void @llvm.lifetime.start.p0(i64 8, ptr %13) #8
  call void @llvm.lifetime.start.p0(i64 8, ptr %14) #8
  call void @llvm.lifetime.start.p0(i64 8, ptr %15) #8
  call void @llvm.lifetime.start.p0(i64 8, ptr %16) #8
  call void @llvm.lifetime.start.p0(i64 8, ptr %17) #8
  call void @llvm.lifetime.start.p0(i64 8, ptr %18) #8
  call void @llvm.lifetime.start.p0(i64 8, ptr %19) #8
  call void @llvm.lifetime.start.p0(i64 8, ptr %20) #8
  call void @llvm.lifetime.start.p0(i64 8, ptr %21) #8
  call void @llvm.lifetime.start.p0(i64 8, ptr %22) #8
  call void @llvm.lifetime.start.p0(i64 8, ptr %23) #8
  %29 = load ptr, ptr %7, align 8, !tbaa !41
  %30 = getelementptr inbounds nuw %"struct.(anonymous namespace)::pj_opaque", ptr %29, i32 0, i32 2
  %31 = load double, ptr %30, align 8, !tbaa !56
  %32 = getelementptr inbounds nuw %struct.PJ_LP, ptr %5, i32 0, i32 1
  %33 = load double, ptr %32, align 8, !tbaa !70
  %34 = call double @llvm.fmuladd.f64(double 5.000000e-01, double %33, double 0x3FE921FB54442D18)
  %35 = call double @tan(double noundef %34) #8, !tbaa !49
  %36 = call double @log(double noundef %35) #8, !tbaa !49
  %37 = fmul double %31, %36
  store double %37, ptr %8, align 8, !tbaa !48
  %38 = load ptr, ptr %6, align 8, !tbaa !3
  %39 = getelementptr inbounds nuw %struct.PJconsts, ptr %38, i32 0, i32 26
  %40 = load double, ptr %39, align 8, !tbaa !57
  %41 = getelementptr inbounds nuw %struct.PJ_LP, ptr %5, i32 0, i32 1
  %42 = load double, ptr %41, align 8, !tbaa !70
  %43 = call double @sin(double noundef %42) #8, !tbaa !49
  %44 = fmul double %40, %43
  store double %44, ptr %23, align 8, !tbaa !48
  %45 = load ptr, ptr %6, align 8, !tbaa !3
  %46 = getelementptr inbounds nuw %struct.PJconsts, ptr %45, i32 0, i32 26
  %47 = load double, ptr %46, align 8, !tbaa !57
  %48 = fmul double 5.000000e-01, %47
  %49 = load ptr, ptr %7, align 8, !tbaa !41
  %50 = getelementptr inbounds nuw %"struct.(anonymous namespace)::pj_opaque", ptr %49, i32 0, i32 2
  %51 = load double, ptr %50, align 8, !tbaa !56
  %52 = fmul double %48, %51
  %53 = load double, ptr %23, align 8, !tbaa !48
  %54 = fadd double 1.000000e+00, %53
  %55 = load double, ptr %23, align 8, !tbaa !48
  %56 = fsub double 1.000000e+00, %55
  %57 = fdiv double %54, %56
  %58 = call double @log(double noundef %57) #8, !tbaa !49
  %59 = fmul double %52, %58
  store double %59, ptr %9, align 8, !tbaa !48
  %60 = load double, ptr %8, align 8, !tbaa !48
  %61 = load double, ptr %9, align 8, !tbaa !48
  %62 = fsub double %60, %61
  %63 = load ptr, ptr %7, align 8, !tbaa !41
  %64 = getelementptr inbounds nuw %"struct.(anonymous namespace)::pj_opaque", ptr %63, i32 0, i32 3
  %65 = load double, ptr %64, align 8, !tbaa !58
  %66 = fadd double %62, %65
  %67 = call double @exp(double noundef %66) #8, !tbaa !49
  %68 = call double @atan(double noundef %67) #8, !tbaa !49
  %69 = fsub double %68, 0x3FE921FB54442D18
  %70 = fmul double 2.000000e+00, %69
  store double %70, ptr %10, align 8, !tbaa !48
  %71 = load double, ptr %10, align 8, !tbaa !48
  %72 = load ptr, ptr %7, align 8, !tbaa !41
  %73 = getelementptr inbounds nuw %"struct.(anonymous namespace)::pj_opaque", ptr %72, i32 0, i32 1
  %74 = load double, ptr %73, align 8, !tbaa !55
  %75 = fsub double %71, %74
  store double %75, ptr %15, align 8, !tbaa !48
  %76 = load double, ptr %10, align 8, !tbaa !48
  %77 = call double @cos(double noundef %76) #8, !tbaa !49
  store double %77, ptr %12, align 8, !tbaa !48
  %78 = load double, ptr %12, align 8, !tbaa !48
  %79 = load double, ptr %12, align 8, !tbaa !48
  %80 = fmul double %78, %79
  store double %80, ptr %14, align 8, !tbaa !48
  %81 = load double, ptr %10, align 8, !tbaa !48
  %82 = call double @sin(double noundef %81) #8, !tbaa !49
  store double %82, ptr %11, align 8, !tbaa !48
  %83 = load double, ptr %11, align 8, !tbaa !48
  %84 = load double, ptr %11, align 8, !tbaa !48
  %85 = fmul double %83, %84
  store double %85, ptr %13, align 8, !tbaa !48
  %86 = load ptr, ptr %7, align 8, !tbaa !41
  %87 = getelementptr inbounds nuw %"struct.(anonymous namespace)::pj_opaque", ptr %86, i32 0, i32 2
  %88 = load double, ptr %87, align 8, !tbaa !56
  %89 = load double, ptr %12, align 8, !tbaa !48
  %90 = fmul double %88, %89
  store double %90, ptr %18, align 8, !tbaa !48
  %91 = load ptr, ptr %7, align 8, !tbaa !41
  %92 = getelementptr inbounds nuw %"struct.(anonymous namespace)::pj_opaque", ptr %91, i32 0, i32 2
  %93 = load double, ptr %92, align 8, !tbaa !56
  %94 = fmul double 5.000000e-01, %93
  %95 = load double, ptr %18, align 8, !tbaa !48
  %96 = fmul double %94, %95
  %97 = load double, ptr %11, align 8, !tbaa !48
  %98 = fmul double %96, %97
  store double %98, ptr %16, align 8, !tbaa !48
  %99 = load double, ptr %16, align 8, !tbaa !48
  %100 = load ptr, ptr %7, align 8, !tbaa !41
  %101 = getelementptr inbounds nuw %"struct.(anonymous namespace)::pj_opaque", ptr %100, i32 0, i32 2
  %102 = load double, ptr %101, align 8, !tbaa !56
  %103 = fmul double %99, %102
  %104 = load ptr, ptr %7, align 8, !tbaa !41
  %105 = getelementptr inbounds nuw %"struct.(anonymous namespace)::pj_opaque", ptr %104, i32 0, i32 2
  %106 = load double, ptr %105, align 8, !tbaa !56
  %107 = fmul double %103, %106
  %108 = load double, ptr %14, align 8, !tbaa !48
  %109 = load double, ptr %13, align 8, !tbaa !48
  %110 = fneg double %109
  %111 = call double @llvm.fmuladd.f64(double 5.000000e+00, double %108, double %110)
  %112 = fmul double %107, %111
  %113 = fdiv double %112, 1.200000e+01
  store double %113, ptr %17, align 8, !tbaa !48
  %114 = load double, ptr %18, align 8, !tbaa !48
  %115 = load ptr, ptr %7, align 8, !tbaa !41
  %116 = getelementptr inbounds nuw %"struct.(anonymous namespace)::pj_opaque", ptr %115, i32 0, i32 2
  %117 = load double, ptr %116, align 8, !tbaa !56
  %118 = fmul double %114, %117
  %119 = load ptr, ptr %7, align 8, !tbaa !41
  %120 = getelementptr inbounds nuw %"struct.(anonymous namespace)::pj_opaque", ptr %119, i32 0, i32 2
  %121 = load double, ptr %120, align 8, !tbaa !56
  %122 = fmul double %118, %121
  store double %122, ptr %20, align 8, !tbaa !48
  %123 = load double, ptr %20, align 8, !tbaa !48
  %124 = load double, ptr %14, align 8, !tbaa !48
  %125 = load double, ptr %13, align 8, !tbaa !48
  %126 = fsub double %124, %125
  %127 = fmul double %123, %126
  %128 = fdiv double %127, 6.000000e+00
  store double %128, ptr %19, align 8, !tbaa !48
  %129 = load ptr, ptr %7, align 8, !tbaa !41
  %130 = getelementptr inbounds nuw %"struct.(anonymous namespace)::pj_opaque", ptr %129, i32 0, i32 2
  %131 = load double, ptr %130, align 8, !tbaa !56
  %132 = load ptr, ptr %7, align 8, !tbaa !41
  %133 = getelementptr inbounds nuw %"struct.(anonymous namespace)::pj_opaque", ptr %132, i32 0, i32 2
  %134 = load double, ptr %133, align 8, !tbaa !56
  %135 = fmul double %131, %134
  %136 = load double, ptr %14, align 8, !tbaa !48
  %137 = fmul double 5.000000e+00, %136
  %138 = load double, ptr %14, align 8, !tbaa !48
  %139 = load double, ptr %13, align 8, !tbaa !48
  %140 = load double, ptr %13, align 8, !tbaa !48
  %141 = load double, ptr %14, align 8, !tbaa !48
  %142 = call double @llvm.fmuladd.f64(double -1.800000e+01, double %141, double %140)
  %143 = fmul double %139, %142
  %144 = call double @llvm.fmuladd.f64(double %137, double %138, double %143)
  %145 = fmul double %135, %144
  %146 = fdiv double %145, 1.200000e+02
  %147 = load double, ptr %20, align 8, !tbaa !48
  %148 = fmul double %147, %146
  store double %148, ptr %20, align 8, !tbaa !48
  %149 = getelementptr inbounds nuw %struct.PJ_LP, ptr %5, i32 0, i32 0
  %150 = load double, ptr %149, align 8, !tbaa !72
  %151 = getelementptr inbounds nuw %struct.PJ_LP, ptr %5, i32 0, i32 0
  %152 = load double, ptr %151, align 8, !tbaa !72
  %153 = fmul double %150, %152
  store double %153, ptr %23, align 8, !tbaa !48
  %154 = load ptr, ptr %7, align 8, !tbaa !41
  %155 = getelementptr inbounds nuw %"struct.(anonymous namespace)::pj_opaque", ptr %154, i32 0, i32 0
  %156 = load double, ptr %155, align 8, !tbaa !53
  %157 = getelementptr inbounds nuw %struct.PJ_LP, ptr %5, i32 0, i32 0
  %158 = load double, ptr %157, align 8, !tbaa !72
  %159 = fmul double %156, %158
  %160 = load double, ptr %18, align 8, !tbaa !48
  %161 = load double, ptr %23, align 8, !tbaa !48
  %162 = load double, ptr %19, align 8, !tbaa !48
  %163 = load double, ptr %23, align 8, !tbaa !48
  %164 = load double, ptr %20, align 8, !tbaa !48
  %165 = call double @llvm.fmuladd.f64(double %163, double %164, double %162)
  %166 = call double @llvm.fmuladd.f64(double %161, double %165, double %160)
  %167 = fmul double %159, %166
  %168 = getelementptr inbounds nuw %struct.PJ_XY, ptr %4, i32 0, i32 0
  store double %167, ptr %168, align 8, !tbaa !65
  %169 = load ptr, ptr %7, align 8, !tbaa !41
  %170 = getelementptr inbounds nuw %"struct.(anonymous namespace)::pj_opaque", ptr %169, i32 0, i32 0
  %171 = load double, ptr %170, align 8, !tbaa !53
  %172 = load double, ptr %15, align 8, !tbaa !48
  %173 = load double, ptr %23, align 8, !tbaa !48
  %174 = load double, ptr %16, align 8, !tbaa !48
  %175 = load double, ptr %23, align 8, !tbaa !48
  %176 = load double, ptr %17, align 8, !tbaa !48
  %177 = call double @llvm.fmuladd.f64(double %175, double %176, double %174)
  %178 = call double @llvm.fmuladd.f64(double %173, double %177, double %172)
  %179 = fmul double %171, %178
  %180 = getelementptr inbounds nuw %struct.PJ_XY, ptr %4, i32 0, i32 1
  store double %179, ptr %180, align 8, !tbaa !67
  %181 = getelementptr inbounds nuw %struct.PJ_XY, ptr %4, i32 0, i32 0
  %182 = load double, ptr %181, align 8, !tbaa !65
  %183 = getelementptr inbounds nuw %struct.PJ_XY, ptr %4, i32 0, i32 0
  %184 = load double, ptr %183, align 8, !tbaa !65
  %185 = fmul double %182, %184
  store double %185, ptr %21, align 8, !tbaa !48
  %186 = getelementptr inbounds nuw %struct.PJ_XY, ptr %4, i32 0, i32 1
  %187 = load double, ptr %186, align 8, !tbaa !67
  %188 = getelementptr inbounds nuw %struct.PJ_XY, ptr %4, i32 0, i32 1
  %189 = load double, ptr %188, align 8, !tbaa !67
  %190 = fmul double %187, %189
  store double %190, ptr %22, align 8, !tbaa !48
  %191 = getelementptr inbounds nuw %struct.PJ_XY, ptr %4, i32 0, i32 0
  %192 = load double, ptr %191, align 8, !tbaa !65
  %193 = fmul double 3.000000e+00, %192
  %194 = load double, ptr %22, align 8, !tbaa !48
  %195 = getelementptr inbounds nuw %struct.PJ_XY, ptr %4, i32 0, i32 0
  %196 = load double, ptr %195, align 8, !tbaa !65
  %197 = load double, ptr %21, align 8, !tbaa !48
  %198 = fmul double %196, %197
  %199 = fneg double %198
  %200 = call double @llvm.fmuladd.f64(double %193, double %194, double %199)
  store double %200, ptr %8, align 8, !tbaa !48
  %201 = getelementptr inbounds nuw %struct.PJ_XY, ptr %4, i32 0, i32 1
  %202 = load double, ptr %201, align 8, !tbaa !67
  %203 = load double, ptr %22, align 8, !tbaa !48
  %204 = load double, ptr %21, align 8, !tbaa !48
  %205 = fmul double 3.000000e+00, %204
  %206 = getelementptr inbounds nuw %struct.PJ_XY, ptr %4, i32 0, i32 1
  %207 = load double, ptr %206, align 8, !tbaa !67
  %208 = fmul double %205, %207
  %209 = fneg double %208
  %210 = call double @llvm.fmuladd.f64(double %202, double %203, double %209)
  store double %210, ptr %9, align 8, !tbaa !48
  %211 = load ptr, ptr %7, align 8, !tbaa !41
  %212 = getelementptr inbounds nuw %"struct.(anonymous namespace)::pj_opaque", ptr %211, i32 0, i32 4
  %213 = load double, ptr %212, align 8, !tbaa !60
  %214 = load double, ptr %8, align 8, !tbaa !48
  %215 = load ptr, ptr %7, align 8, !tbaa !41
  %216 = getelementptr inbounds nuw %"struct.(anonymous namespace)::pj_opaque", ptr %215, i32 0, i32 5
  %217 = load double, ptr %216, align 8, !tbaa !59
  %218 = load double, ptr %9, align 8, !tbaa !48
  %219 = fmul double %217, %218
  %220 = call double @llvm.fmuladd.f64(double %213, double %214, double %219)
  %221 = getelementptr inbounds nuw %struct.PJ_XY, ptr %4, i32 0, i32 0
  %222 = load double, ptr %221, align 8, !tbaa !65
  %223 = fadd double %222, %220
  store double %223, ptr %221, align 8, !tbaa !65
  %224 = load ptr, ptr %7, align 8, !tbaa !41
  %225 = getelementptr inbounds nuw %"struct.(anonymous namespace)::pj_opaque", ptr %224, i32 0, i32 4
  %226 = load double, ptr %225, align 8, !tbaa !60
  %227 = load double, ptr %9, align 8, !tbaa !48
  %228 = load ptr, ptr %7, align 8, !tbaa !41
  %229 = getelementptr inbounds nuw %"struct.(anonymous namespace)::pj_opaque", ptr %228, i32 0, i32 5
  %230 = load double, ptr %229, align 8, !tbaa !59
  %231 = load double, ptr %8, align 8, !tbaa !48
  %232 = fmul double %230, %231
  %233 = fneg double %232
  %234 = call double @llvm.fmuladd.f64(double %226, double %227, double %233)
  %235 = getelementptr inbounds nuw %struct.PJ_XY, ptr %4, i32 0, i32 1
  %236 = load double, ptr %235, align 8, !tbaa !67
  %237 = fadd double %236, %234
  store double %237, ptr %235, align 8, !tbaa !67
  call void @llvm.lifetime.end.p0(i64 8, ptr %23) #8
  call void @llvm.lifetime.end.p0(i64 8, ptr %22) #8
  call void @llvm.lifetime.end.p0(i64 8, ptr %21) #8
  call void @llvm.lifetime.end.p0(i64 8, ptr %20) #8
  call void @llvm.lifetime.end.p0(i64 8, ptr %19) #8
  call void @llvm.lifetime.end.p0(i64 8, ptr %18) #8
  call void @llvm.lifetime.end.p0(i64 8, ptr %17) #8
  call void @llvm.lifetime.end.p0(i64 8, ptr %16) #8
  call void @llvm.lifetime.end.p0(i64 8, ptr %15) #8
  call void @llvm.lifetime.end.p0(i64 8, ptr %14) #8
  call void @llvm.lifetime.end.p0(i64 8, ptr %13) #8
  call void @llvm.lifetime.end.p0(i64 8, ptr %12) #8
  call void @llvm.lifetime.end.p0(i64 8, ptr %11) #8
  call void @llvm.lifetime.end.p0(i64 8, ptr %10) #8
  call void @llvm.lifetime.end.p0(i64 8, ptr %9) #8
  call void @llvm.lifetime.end.p0(i64 8, ptr %8) #8
  call void @llvm.lifetime.end.p0(i64 8, ptr %7) #8
  %238 = load { double, double }, ptr %4, align 8
  ret { double, double } %238
}