; Function Attrs: mustprogress nofree nounwind willreturn memory(readwrite, inaccessiblemem: write) uwtable
define internal { double, double } @_ZL15labrd_e_forward5PJ_LPP8PJconsts(double %0, double %1, ptr noundef readonly captures(none) %2) #6 {
  %4 = getelementptr inbounds nuw i8, ptr %2, i64 88
  %5 = load ptr, ptr %4, align 8, !tbaa !40
  %6 = getelementptr inbounds nuw i8, ptr %5, i64 16
  %7 = load double, ptr %6, align 8, !tbaa !51
  %8 = tail call double @llvm.fmuladd.f64(double %1, double 5.000000e-01, double 0x3FE921FB54442D18)
  %9 = tail call double @tan(double noundef %8) #8, !tbaa !44
  %10 = tail call double @log(double noundef %9) #8, !tbaa !44
  %11 = fmul double %7, %10
  %12 = getelementptr inbounds nuw i8, ptr %2, i64 208
  %13 = load double, ptr %12, align 8, !tbaa !52
  %14 = tail call double @sin(double noundef %1) #8, !tbaa !44
  %15 = fmul double %13, %14
  %16 = fmul double %13, 5.000000e-01
  %17 = fmul double %7, %16
  %18 = fadd double %15, 1.000000e+00
  %19 = fsub double 1.000000e+00, %15
  %20 = fdiv double %18, %19
  %21 = tail call double @log(double noundef %20) #8, !tbaa !44
  %22 = fmul double %17, %21
  %23 = fsub double %11, %22
  %24 = getelementptr inbounds nuw i8, ptr %5, i64 24
  %25 = load double, ptr %24, align 8, !tbaa !53
  %26 = fadd double %25, %23
  %27 = tail call double @exp(double noundef %26) #8, !tbaa !44
  %28 = tail call double @atan(double noundef %27) #8, !tbaa !44
  %29 = fadd double %28, 0xBFE921FB54442D18
  %30 = fmul double %29, 2.000000e+00
  %31 = getelementptr inbounds nuw i8, ptr %5, i64 8
  %32 = load double, ptr %31, align 8, !tbaa !50
  %33 = fsub double %30, %32
  %34 = tail call double @cos(double noundef %30) #8, !tbaa !44
  %35 = fmul double %34, %34
  %36 = tail call double @sin(double noundef %30) #8, !tbaa !44
  %37 = fmul double %36, %36
  %38 = fmul double %7, %34
  %39 = fmul double %7, 5.000000e-01
  %40 = fmul double %39, %38
  %41 = fmul double %36, %40
  %42 = fmul double %7, %41
  %43 = fmul double %7, %42
  %44 = fneg double %37
  %45 = tail call double @llvm.fmuladd.f64(double %35, double 5.000000e+00, double %44)
  %46 = fmul double %45, %43
  %47 = fdiv double %46, 1.200000e+01
  %48 = fmul double %7, %38
  %49 = fmul double %7, %48
  %50 = fsub double %35, %37
  %51 = fmul double %49, %50
  %52 = fdiv double %51, 6.000000e+00
  %53 = fmul double %7, %7
  %54 = fmul double %35, 5.000000e+00
  %55 = tail call double @llvm.fmuladd.f64(double %35, double -1.800000e+01, double %37)
  %56 = fmul double %37, %55
  %57 = tail call double @llvm.fmuladd.f64(double %54, double %35, double %56)
  %58 = fmul double %53, %57
  %59 = fdiv double %58, 1.200000e+02
  %60 = fmul double %49, %59
  %61 = fmul double %0, %0
  %62 = load double, ptr %5, align 8, !tbaa !48
  %63 = fmul double %0, %62
  %64 = tail call double @llvm.fmuladd.f64(double %61, double %60, double %52)
  %65 = tail call double @llvm.fmuladd.f64(double %61, double %64, double %38)
  %66 = fmul double %63, %65
  %67 = tail call double @llvm.fmuladd.f64(double %61, double %47, double %41)
  %68 = tail call double @llvm.fmuladd.f64(double %61, double %67, double %33)
  %69 = fmul double %62, %68
  %70 = fmul double %66, %66
  %71 = fmul double %69, %69
  %72 = fmul double %66, 3.000000e+00
  %73 = fneg double %70
  %74 = fmul double %66, %73
  %75 = tail call double @llvm.fmuladd.f64(double %72, double %71, double %74)
  %76 = fmul double %70, 3.000000e+00
  %77 = fneg double %69
  %78 = fmul double %76, %77
  %79 = tail call double @llvm.fmuladd.f64(double %69, double %71, double %78)
  %80 = getelementptr inbounds nuw i8, ptr %5, i64 32
  %81 = load double, ptr %80, align 8, !tbaa !54
  %82 = getelementptr inbounds nuw i8, ptr %5, i64 40
  %83 = load double, ptr %82, align 8, !tbaa !55
  %84 = fmul double %83, %79
  %85 = tail call double @llvm.fmuladd.f64(double %81, double %75, double %84)
  %86 = fadd double %66, %85
  %87 = fneg double %75
  %88 = fmul double %83, %87
  %89 = tail call double @llvm.fmuladd.f64(double %81, double %79, double %88)
  %90 = fadd double %69, %89
  %.fca.0.insert = insertvalue { double, double } poison, double %86, 0
  %.fca.1.insert = insertvalue { double, double } %.fca.0.insert, double %90, 1
  ret { double, double } %.fca.1.insert
}